target datalayout = "e-m:e-p270:32:32-p271:32:32-p272:64:64-i64:64-i128:128-f80:128-n8:16:32:64-S128"
target triple = "x86_64-pc-linux-gnu"

%struct.SResource = type { ptr, i8, i8, i32, i32, i32, i32, i32, ptr, %struct.UString }
%struct.UString = type { ptr, i32, i32 }
%"class.icu_77::UnicodeString" = type { %"class.icu_77::Replaceable", %"union.icu_77::UnicodeString::StackBufferOrFields" }
%"class.icu_77::Replaceable" = type { %"class.icu_77::UObject" }
%"class.icu_77::UObject" = type { ptr }
%"union.icu_77::UnicodeString::StackBufferOrFields" = type { %struct.anon.0, [32 x i8] }
%struct.anon.0 = type { i16, i32, i32, ptr }
%class.StringBaseResource = type { %struct.SResource, %"class.icu_77::UnicodeString" }
%struct.anon = type { i16, [27 x i16] }

; Function Attrs: inlinehint mustprogress nounwind uwtable
define linkonce_odr dso_local noundef i32 @_ZNK6icu_7713UnicodeString14getShortLengthEv(ptr noundef nonnull align 8 dereferenceable(64) %0) #9 comdat align 2 {
  %2 = alloca ptr, align 8
  store ptr %0, ptr %2, align 8, !tbaa !74
  %3 = load ptr, ptr %2, align 8
  %4 = getelementptr inbounds nuw %"class.icu_77::UnicodeString", ptr %3, i32 0, i32 1
  %5 = getelementptr inbounds nuw %struct.anon.0, ptr %4, i32 0, i32 0
  %6 = load i16, ptr %5, align 8, !tbaa !22
  %7 = sext i16 %6 to i32
  %8 = ashr i32 %7, 5
  ret i32 %8
}

; Function Attrs: inlinehint mustprogress nounwind uwtable
define linkonce_odr dso_local noundef signext i8 @_ZNK6icu_7713UnicodeString14hasShortLengthEv(ptr noundef nonnull align 8 dereferenceable(64) %0) #9 comdat align 2 {
  %2 = alloca ptr, align 8
  store ptr %0, ptr %2, align 8, !tbaa !74
  %3 = load ptr, ptr %2, align 8
  %4 = getelementptr inbounds nuw %"class.icu_77::UnicodeString", ptr %3, i32 0, i32 1
  %5 = getelementptr inbounds nuw %struct.anon.0, ptr %4, i32 0, i32 0
  %6 = load i16, ptr %5, align 8, !tbaa !22
  %7 = sext i16 %6 to i32
  %8 = icmp sge i32 %7, 0
  %9 = zext i1 %8 to i8
  ret i8 %9
}

; Function Attrs: inlinehint mustprogress uwtable
define linkonce_odr dso_local noundef i32 @_ZNK6icu_7713UnicodeString6lengthEv(ptr noundef nonnull align 8 dereferenceable(64) %0) #11 comdat align 2 {
  %2 = alloca ptr, align 8
  store ptr %0, ptr %2, align 8, !tbaa !74
  %3 = load ptr, ptr %2, align 8
  %4 = call noundef signext i8 @_ZNK6icu_7713UnicodeString14hasShortLengthEv(ptr noundef nonnull align 8 dereferenceable(64) %3)
  %5 = icmp ne i8 %4, 0
  br i1 %5, label %6, label %8

6:                                                ; preds = %1
  %7 = call noundef i32 @_ZNK6icu_7713UnicodeString14getShortLengthEv(ptr noundef nonnull align 8 dereferenceable(64) %3)
  br label %12

8:                                                ; preds = %1
  %9 = getelementptr inbounds nuw %"class.icu_77::UnicodeString", ptr %3, i32 0, i32 1
  %10 = getelementptr inbounds nuw %struct.anon.0, ptr %9, i32 0, i32 1
  %11 = load i32, ptr %10, align 4, !tbaa !22
  br label %12

12:                                               ; preds = %8, %6
  %13 = phi i32 [ %7, %6 ], [ %11, %8 ]
  ret i32 %13
}

; Function Attrs: inlinehint mustprogress nounwind uwtable
define linkonce_odr dso_local noundef ptr @_ZN6icu_7710toUCharPtrEPKDs(ptr noundef %0) #9 comdat {
  %2 = alloca ptr, align 8
  store ptr %0, ptr %2, align 8, !tbaa !73
  %3 = load ptr, ptr %2, align 8, !tbaa !73
  call void asm sideeffect "", "rm,~{memory},~{dirflag},~{fpsr},~{flags}"(ptr %3) #3, !srcloc !245
  %4 = load ptr, ptr %2, align 8, !tbaa !73
  ret ptr %4
}

; Function Attrs: inlinehint mustprogress nounwind uwtable
define linkonce_odr dso_local noundef ptr @_ZNK6icu_7713UnicodeString9getBufferEv(ptr noundef nonnull align 8 dereferenceable(64) %0) #9 comdat align 2 {
  %2 = alloca ptr, align 8
  %3 = alloca ptr, align 8
  store ptr %0, ptr %3, align 8, !tbaa !74
  %4 = load ptr, ptr %3, align 8
  %5 = getelementptr inbounds nuw %"class.icu_77::UnicodeString", ptr %4, i32 0, i32 1
  %6 = getelementptr inbounds nuw %struct.anon.0, ptr %5, i32 0, i32 0
  %7 = load i16, ptr %6, align 8, !tbaa !22
  %8 = sext i16 %7 to i32
  %9 = and i32 %8, 17
  %10 = icmp ne i32 %9, 0
  br i1 %10, label %11, label %12

11:                                               ; preds = %1
  store ptr null, ptr %2, align 8
  br label %27

12:                                               ; preds = %1
  %13 = getelementptr inbounds nuw %"class.icu_77::UnicodeString", ptr %4, i32 0, i32 1
  %14 = getelementptr inbounds nuw %struct.anon.0, ptr %13, i32 0, i32 0
  %15 = load i16, ptr %14, align 8, !tbaa !22
  %16 = sext i16 %15 to i32
  %17 = and i32 %16, 2
  %18 = icmp ne i32 %17, 0
  br i1 %18, label %19, label %23

19:                                               ; preds = %12
  %20 = getelementptr inbounds nuw %"class.icu_77::UnicodeString", ptr %4, i32 0, i32 1
  %21 = getelementptr inbounds nuw %struct.anon, ptr %20, i32 0, i32 1
  %22 = getelementptr inbounds [27 x i16], ptr %21, i64 0, i64 0
  store ptr %22, ptr %2, align 8
  br label %27

23:                                               ; preds = %12
  %24 = getelementptr inbounds nuw %"class.icu_77::UnicodeString", ptr %4, i32 0, i32 1
  %25 = getelementptr inbounds nuw %struct.anon.0, ptr %24, i32 0, i32 3
  %26 = load ptr, ptr %25, align 8, !tbaa !22
  store ptr %26, ptr %2, align 8
  br label %27

27:                                               ; preds = %23, %19, %11
  %28 = load ptr, ptr %2, align 8
  ret ptr %28
}

; Function Attrs: mustprogress uwtable
define linkonce_odr dso_local noundef i32 @_ZNK18StringBaseResource6lengthEv(ptr noundef nonnull align 8 dereferenceable(120) %0) #5 comdat align 2 {
  %2 = alloca ptr, align 8
  store ptr %0, ptr %2, align 8, !tbaa !71
  %3 = load ptr, ptr %2, align 8
  %4 = getelementptr inbounds nuw %class.StringBaseResource, ptr %3, i32 0, i32 1
  %5 = call noundef i32 @_ZNK6icu_7713UnicodeString6lengthEv(ptr noundef nonnull align 8 dereferenceable(64) %4)
  ret i32 %5
}

; Function Attrs: mustprogress uwtable
define linkonce_odr dso_local noundef ptr @_ZNK18StringBaseResource9getBufferEv(ptr noundef nonnull align 8 dereferenceable(120) %0) #5 comdat align 2 {
  %2 = alloca ptr, align 8
  store ptr %0, ptr %2, align 8, !tbaa !71
  %3 = load ptr, ptr %2, align 8
  %4 = getelementptr inbounds nuw %class.StringBaseResource, ptr %3, i32 0, i32 1
  %5 = call noundef ptr @_ZNK6icu_7713UnicodeString9getBufferEv(ptr noundef nonnull align 8 dereferenceable(64) %4)
  %6 = call noundef ptr @_ZN6icu_7710toUCharPtrEPKDs(ptr noundef %5)
  ret ptr %6
}

; Function Attrs: mustprogress uwtable
define internal noundef i32 @_ZL21compareStringSuffixesPKvS0_S0_(ptr noundef %0, ptr noundef %1, ptr noundef %2) #5 {
  %4 = alloca i32, align 4
  %5 = alloca ptr, align 8
  %6 = alloca ptr, align 8
  %7 = alloca ptr, align 8
  %8 = alloca ptr, align 8
  %9 = alloca ptr, align 8
  %10 = alloca ptr, align 8
  %11 = alloca ptr, align 8
  %12 = alloca ptr, align 8
  %13 = alloca ptr, align 8
  %14 = alloca i32, align 4
  %15 = alloca i32, align 4
  store ptr %0, ptr %5, align 8, !tbaa !44
  store ptr %1, ptr %6, align 8, !tbaa !44
  store ptr %2, ptr %7, align 8, !tbaa !44
  call void @llvm.lifetime.start.p0(i64 8, ptr %8) #3
  %16 = load ptr, ptr %6, align 8, !tbaa !44
  %17 = load ptr, ptr %16, align 8, !tbaa !81
  store ptr %17, ptr %8, align 8, !tbaa !81
  call void @llvm.lifetime.start.p0(i64 8, ptr %9) #3
  %18 = load ptr, ptr %7, align 8, !tbaa !44
  %19 = load ptr, ptr %18, align 8, !tbaa !81
  store ptr %19, ptr %9, align 8, !tbaa !81
  call void @llvm.lifetime.start.p0(i64 8, ptr %10) #3
  %20 = load ptr, ptr %8, align 8, !tbaa !81
  %21 = call noundef ptr @_ZNK18StringBaseResource9getBufferEv(ptr noundef nonnull align 8 dereferenceable(120) %20)
  store ptr %21, ptr %10, align 8, !tbaa !73
  call void @llvm.lifetime.start.p0(i64 8, ptr %11) #3
  %22 = load ptr, ptr %10, align 8, !tbaa !73
  %23 = load ptr, ptr %8, align 8, !tbaa !81
  %24 = call noundef i32 @_ZNK18StringBaseResource6lengthEv(ptr noundef nonnull align 8 dereferenceable(120) %23)
  %25 = sext i32 %24 to i64
  %26 = getelementptr inbounds i16, ptr %22, i64 %25
  store ptr %26, ptr %11, align 8, !tbaa !73
  call void @llvm.lifetime.start.p0(i64 8, ptr %12) #3
  %27 = load ptr, ptr %9, align 8, !tbaa !81
  %28 = call noundef ptr @_ZNK18StringBaseResource9getBufferEv(ptr noundef nonnull align 8 dereferenceable(120) %27)
  store ptr %28, ptr %12, align 8, !tbaa !73
  call void @llvm.lifetime.start.p0(i64 8, ptr %13) #3
  %29 = load ptr, ptr %12, align 8, !tbaa !73
  %30 = load ptr, ptr %9, align 8, !tbaa !81
  %31 = call noundef i32 @_ZNK18StringBaseResource6lengthEv(ptr noundef nonnull align 8 dereferenceable(120) %30)
  %32 = sext i32 %31 to i64
  %33 = getelementptr inbounds i16, ptr %29, i64 %32
  store ptr %33, ptr %13, align 8, !tbaa !73
  call void @llvm.lifetime.start.p0(i64 4, ptr %14) #3
  br label %34

34:                                               ; preds = %58, %3
  %35 = load ptr, ptr %10, align 8, !tbaa !73
  %36 = load ptr, ptr %11, align 8, !tbaa !73
  %37 = icmp ult ptr %35, %36
  br i1 %37, label %38, label %42

38:                                               ; preds = %34
  %39 = load ptr, ptr %12, align 8, !tbaa !73
  %40 = load ptr, ptr %13, align 8, !tbaa !73
  %41 = icmp ult ptr %39, %40
  br label %42

42:                                               ; preds = %38, %34
  %43 = phi i1 [ false, %34 ], [ %41, %38 ]
  br i1 %43, label %44, label %59

44:                                               ; preds = %42
  %45 = load ptr, ptr %11, align 8, !tbaa !73
  %46 = getelementptr inbounds i16, ptr %45, i32 -1
  store ptr %46, ptr %11, align 8, !tbaa !73
  %47 = load i16, ptr %46, align 2, !tbaa !113
  %48 = zext i16 %47 to i32
  %49 = load ptr, ptr %13, align 8, !tbaa !73
  %50 = getelementptr inbounds i16, ptr %49, i32 -1
  store ptr %50, ptr %13, align 8, !tbaa !73
  %51 = load i16, ptr %50, align 2, !tbaa !113
  %52 = zext i16 %51 to i32
  %53 = sub nsw i32 %48, %52
  store i32 %53, ptr %14, align 4, !tbaa !23
  %54 = load i32, ptr %14, align 4, !tbaa !23
  %55 = icmp ne i32 %54, 0
  br i1 %55, label %56, label %58

56:                                               ; preds = %44
  %57 = load i32, ptr %14, align 4, !tbaa !23
  store i32 %57, ptr %4, align 4
  store i32 1, ptr %15, align 4
  br label %65

58:                                               ; preds = %44
  br label %34, !llvm.loop !227

59:                                               ; preds = %42
  %60 = load ptr, ptr %9, align 8, !tbaa !81
  %61 = call noundef i32 @_ZNK18StringBaseResource6lengthEv(ptr noundef nonnull align 8 dereferenceable(120) %60)
  %62 = load ptr, ptr %8, align 8, !tbaa !81
  %63 = call noundef i32 @_ZNK18StringBaseResource6lengthEv(ptr noundef nonnull align 8 dereferenceable(120) %62)
  %64 = sub nsw i32 %61, %63
  store i32 %64, ptr %4, align 4
  store i32 1, ptr %15, align 4
  br label %65

65:                                               ; preds = %59, %56
  call void @llvm.lifetime.end.p0(i64 4, ptr %14) #3
  call void @llvm.lifetime.end.p0(i64 8, ptr %13) #3
  call void @llvm.lifetime.end.p0(i64 8, ptr %12) #3
  call void @llvm.lifetime.end.p0(i64 8, ptr %11) #3
  call void @llvm.lifetime.end.p0(i64 8, ptr %10) #3
  call void @llvm.lifetime.end.p0(i64 8, ptr %9) #3
  call void @llvm.lifetime.end.p0(i64 8, ptr %8) #3
  %66 = load i32, ptr %4, align 4
  ret i32 %66
}