; Function Attrs: mustprogress uwtable
define internal noundef i32 @_ZL21compareStringSuffixesPKvS0_S0_(ptr readnone captures(none) %0, ptr noundef readonly captures(none) %1, ptr noundef readonly captures(none) %2) #7 {
  %4 = load ptr, ptr %1, align 8, !tbaa !150
  %5 = load ptr, ptr %2, align 8, !tbaa !150
  %6 = getelementptr inbounds nuw i8, ptr %4, i64 64
  %7 = load i16, ptr %6, align 8, !tbaa !4
  %8 = and i16 %7, 17
  %.not.i.i = icmp eq i16 %8, 0
  br i1 %.not.i.i, label %9, label %_ZNK18StringBaseResource9getBufferEv.exit

9:                                                ; preds = %3
  %10 = and i16 %7, 2
  %.not2.i.i = icmp eq i16 %10, 0
  br i1 %.not2.i.i, label %13, label %11

11:                                               ; preds = %9
  %12 = getelementptr inbounds nuw i8, ptr %4, i64 66
  br label %_ZNK18StringBaseResource9getBufferEv.exit

13:                                               ; preds = %9
  %14 = getelementptr inbounds nuw i8, ptr %4, i64 80
  %15 = load ptr, ptr %14, align 8, !tbaa !4
  br label %_ZNK18StringBaseResource9getBufferEv.exit

_ZNK18StringBaseResource9getBufferEv.exit:        ; preds = %3, %11, %13
  %.0.i.i = phi ptr [ %12, %11 ], [ %15, %13 ], [ null, %3 ]
  tail call void asm sideeffect "", "rm,~{memory},~{dirflag},~{fpsr},~{flags}"(ptr %.0.i.i) #34, !srcloc !94
  %16 = load i16, ptr %6, align 8, !tbaa !4
  %17 = icmp slt i16 %16, 0
  %18 = ashr i16 %16, 5
  %19 = sext i16 %18 to i32
  %20 = getelementptr inbounds nuw i8, ptr %4, i64 68
  %21 = load i32, ptr %20, align 4
  %22 = select i1 %17, i32 %21, i32 %19
  %23 = sext i32 %22 to i64
  %24 = getelementptr inbounds i16, ptr %.0.i.i, i64 %23
  %25 = getelementptr inbounds nuw i8, ptr %5, i64 64
  %26 = load i16, ptr %25, align 8, !tbaa !4
  %27 = and i16 %26, 17
  %.not.i.i21 = icmp eq i16 %27, 0
  br i1 %.not.i.i21, label %28, label %_ZNK18StringBaseResource9getBufferEv.exit24

28:                                               ; preds = %_ZNK18StringBaseResource9getBufferEv.exit
  %29 = and i16 %26, 2
  %.not2.i.i23 = icmp eq i16 %29, 0
  br i1 %.not2.i.i23, label %32, label %30

30:                                               ; preds = %28
  %31 = getelementptr inbounds nuw i8, ptr %5, i64 66
  br label %_ZNK18StringBaseResource9getBufferEv.exit24

32:                                               ; preds = %28
  %33 = getelementptr inbounds nuw i8, ptr %5, i64 80
  %34 = load ptr, ptr %33, align 8, !tbaa !4
  br label %_ZNK18StringBaseResource9getBufferEv.exit24

_ZNK18StringBaseResource9getBufferEv.exit24:      ; preds = %_ZNK18StringBaseResource9getBufferEv.exit, %30, %32
  %.0.i.i22 = phi ptr [ %31, %30 ], [ %34, %32 ], [ null, %_ZNK18StringBaseResource9getBufferEv.exit ]
  tail call void asm sideeffect "", "rm,~{memory},~{dirflag},~{fpsr},~{flags}"(ptr %.0.i.i22) #34, !srcloc !94
  %35 = load i16, ptr %25, align 8, !tbaa !4
  %36 = icmp slt i16 %35, 0
  %37 = ashr i16 %35, 5
  %38 = sext i16 %37 to i32
  %39 = getelementptr inbounds nuw i8, ptr %5, i64 68
  %40 = load i32, ptr %39, align 4
  %41 = select i1 %36, i32 %40, i32 %38
  %42 = sext i32 %41 to i64
  %43 = getelementptr inbounds i16, ptr %.0.i.i22, i64 %42
  br label %44

44:                                               ; preds = %48, %_ZNK18StringBaseResource9getBufferEv.exit24
  %.019 = phi ptr [ %24, %_ZNK18StringBaseResource9getBufferEv.exit24 ], [ %49, %48 ]
  %.018 = phi ptr [ %43, %_ZNK18StringBaseResource9getBufferEv.exit24 ], [ %52, %48 ]
  %45 = icmp ult ptr %.0.i.i, %.019
  %46 = icmp ult ptr %.0.i.i22, %.018
  %47 = select i1 %45, i1 %46, i1 false
  br i1 %47, label %48, label %56

48:                                               ; preds = %44
  %49 = getelementptr inbounds i8, ptr %.019, i64 -2
  %50 = load i16, ptr %49, align 2, !tbaa !70
  %51 = zext i16 %50 to i32
  %52 = getelementptr inbounds i8, ptr %.018, i64 -2
  %53 = load i16, ptr %52, align 2, !tbaa !70
  %54 = zext i16 %53 to i32
  %55 = sub nsw i32 %51, %54
  %.not = icmp eq i32 %55, 0
  br i1 %.not, label %44, label %.loopexit, !llvm.loop !164

56:                                               ; preds = %44
  %57 = load i16, ptr %6, align 8, !tbaa !4
  %58 = icmp slt i16 %57, 0
  %59 = ashr i16 %57, 5
  %60 = sext i16 %59 to i32
  %61 = load i32, ptr %20, align 4
  %62 = select i1 %58, i32 %61, i32 %60
  %63 = sub nsw i32 %41, %62
  br label %.loopexit

.loopexit:                                        ; preds = %48, %56
  %.0 = phi i32 [ %63, %56 ], [ %55, %48 ]
  ret i32 %.0
}